; Function Attrs: nofree norecurse nosync nounwind memory(readwrite, inaccessiblemem: none) uwtable
define hidden void @IntArgbToIntBgrScaleConvert(ptr noundef %0, ptr noundef %1, i32 noundef %2, i32 noundef %3, i32 noundef %4, i32 noundef %5, i32 noundef %6, i32 noundef %7, i32 noundef %8, ptr nocapture noundef readonly %9, ptr nocapture noundef readonly %10, ptr nocapture readnone %11, ptr nocapture readnone %12) #1 {
  %14 = getelementptr inbounds i8, ptr %9, i64 32
  %15 = load i32, ptr %14, align 8
  %16 = getelementptr inbounds i8, ptr %10, i64 32
  %17 = load i32, ptr %16, align 8
  %18 = shl i32 %2, 2
  %19 = sub i32 %17, %18
  %20 = sext i32 %19 to i64
  %21 = ptrtoint ptr %0 to i64
  %22 = sext i32 %15 to i64
  br label %23

23:                                               ; preds = %45, %13
  %.030 = phi ptr [ %1, %13 ], [ %47, %45 ]
  %.027 = phi i32 [ %5, %13 ], [ %48, %45 ]
  %.0 = phi i32 [ %3, %13 ], [ %49, %45 ]
  %24 = ashr i32 %.027, %8
  %25 = sext i32 %24 to i64
  %26 = mul nsw i64 %25, %22
  %27 = add nsw i64 %26, %21
  %28 = inttoptr i64 %27 to ptr
  br label %29

29:                                               ; preds = %29, %23
  %.1 = phi ptr [ %.030, %23 ], [ %42, %29 ]
  %.029 = phi i32 [ %2, %23 ], [ %44, %29 ]
  %.028 = phi i32 [ %4, %23 ], [ %43, %29 ]
  %30 = ashr i32 %.028, %8
  %31 = sext i32 %30 to i64
  %32 = getelementptr inbounds i32, ptr %28, i64 %31
  %33 = load i32, ptr %32, align 4
  %34 = shl i32 %33, 16
  %35 = and i32 %33, 65280
  %36 = or disjoint i32 %34, %35
  %37 = lshr i32 %33, 16
  %38 = and i32 %37, 255
  %39 = or disjoint i32 %36, %38
  store i32 %39, ptr %.1, align 4
  %40 = ptrtoint ptr %.1 to i64
  %41 = add nsw i64 %40, 4
  %42 = inttoptr i64 %41 to ptr
  %43 = add nsw i32 %.028, %6
  %44 = add i32 %.029, -1
  %.not = icmp eq i32 %44, 0
  br i1 %.not, label %45, label %29, !llvm.loop !18

45:                                               ; preds = %29
  %46 = add nsw i64 %41, %20
  %47 = inttoptr i64 %46 to ptr
  %48 = add nsw i32 %.027, %7
  %49 = add i32 %.0, -1
  %.not32 = icmp eq i32 %49, 0
  br i1 %.not32, label %50, label %23, !llvm.loop !19

50:                                               ; preds = %45
  ret void
}